target datalayout = "e-m:e-p270:32:32-p271:32:32-p272:64:64-i64:64-i128:128-f80:128-n8:16:32:64-S128"
target triple = "x86_64-pc-linux-gnu"

%"struct.osgeo::proj::metadata::GeographicBoundingBox::Private" = type { double, double, double, double }

; Function Attrs: mustprogress nounwind uwtable
define linkonce_odr hidden void @_ZN5osgeo4proj8metadata21GeographicBoundingBox7PrivateC2Edddd(ptr noundef nonnull align 8 dereferenceable(32) %0, double noundef %1, double noundef %2, double noundef %3, double noundef %4) unnamed_addr #3 comdat align 2 {
  %6 = alloca ptr, align 8
  %7 = alloca double, align 8
  %8 = alloca double, align 8
  %9 = alloca double, align 8
  %10 = alloca double, align 8
  store ptr %0, ptr %6, align 8
  store double %1, ptr %7, align 8
  store double %2, ptr %8, align 8
  store double %3, ptr %9, align 8
  store double %4, ptr %10, align 8
  %11 = load ptr, ptr %6, align 8
  %12 = getelementptr inbounds %"struct.osgeo::proj::metadata::GeographicBoundingBox::Private", ptr %11, i32 0, i32 0
  %13 = load double, ptr %7, align 8
  store double %13, ptr %12, align 8
  %14 = getelementptr inbounds %"struct.osgeo::proj::metadata::GeographicBoundingBox::Private", ptr %11, i32 0, i32 1
  %15 = load double, ptr %8, align 8
  store double %15, ptr %14, align 8
  %16 = getelementptr inbounds %"struct.osgeo::proj::metadata::GeographicBoundingBox::Private", ptr %11, i32 0, i32 2
  %17 = load double, ptr %9, align 8
  store double %17, ptr %16, align 8
  %18 = getelementptr inbounds %"struct.osgeo::proj::metadata::GeographicBoundingBox::Private", ptr %11, i32 0, i32 3
  %19 = load double, ptr %10, align 8
  store double %19, ptr %18, align 8
  ret void
}

; Function Attrs: mustprogress nounwind uwtable
define linkonce_odr noundef nonnull align 8 dereferenceable(8) ptr @_ZSt3minIdERKT_S2_S2_(ptr noundef nonnull align 8 dereferenceable(8) %0, ptr noundef nonnull align 8 dereferenceable(8) %1) #3 comdat {
  %3 = alloca ptr, align 8
  %4 = alloca ptr, align 8
  %5 = alloca ptr, align 8
  store ptr %0, ptr %4, align 8
  store ptr %1, ptr %5, align 8
  %6 = load ptr, ptr %5, align 8
  %7 = load double, ptr %6, align 8
  %8 = load ptr, ptr %4, align 8
  %9 = load double, ptr %8, align 8
  %10 = fcmp olt double %7, %9
  br i1 %10, label %11, label %13

11:                                               ; preds = %2
  %12 = load ptr, ptr %5, align 8
  store ptr %12, ptr %3, align 8
  br label %15

13:                                               ; preds = %2
  %14 = load ptr, ptr %4, align 8
  store ptr %14, ptr %3, align 8
  br label %15

15:                                               ; preds = %13, %11
  %16 = load ptr, ptr %3, align 8
  ret ptr %16
}

; Function Attrs: mustprogress nounwind uwtable
define linkonce_odr noundef nonnull align 8 dereferenceable(8) ptr @_ZSt3maxIdERKT_S2_S2_(ptr noundef nonnull align 8 dereferenceable(8) %0, ptr noundef nonnull align 8 dereferenceable(8) %1) #3 comdat {
  %3 = alloca ptr, align 8
  %4 = alloca ptr, align 8
  %5 = alloca ptr, align 8
  store ptr %0, ptr %4, align 8
  store ptr %1, ptr %5, align 8
  %6 = load ptr, ptr %4, align 8
  %7 = load double, ptr %6, align 8
  %8 = load ptr, ptr %5, align 8
  %9 = load double, ptr %8, align 8
  %10 = fcmp olt double %7, %9
  br i1 %10, label %11, label %13

11:                                               ; preds = %2
  %12 = load ptr, ptr %5, align 8
  store ptr %12, ptr %3, align 8
  br label %15

13:                                               ; preds = %2
  %14 = load ptr, ptr %4, align 8
  store ptr %14, ptr %3, align 8
  br label %15

15:                                               ; preds = %13, %11
  %16 = load ptr, ptr %3, align 8
  ret ptr %16
}

; Function Attrs: mustprogress uwtable
define hidden noundef zeroext i1 @_ZNK5osgeo4proj8metadata21GeographicBoundingBox7Private10intersectsERKS3_(ptr noundef nonnull align 8 dereferenceable(32) %0, ptr noundef nonnull align 8 dereferenceable(32) %1) #0 align 2 {
  %3 = alloca i1, align 1
  %4 = alloca ptr, align 8
  %5 = alloca ptr, align 8
  %6 = alloca double, align 8
  %7 = alloca double, align 8
  %8 = alloca double, align 8
  %9 = alloca double, align 8
  %10 = alloca double, align 8
  %11 = alloca double, align 8
  %12 = alloca double, align 8
  %13 = alloca double, align 8
  %14 = alloca %"struct.osgeo::proj::metadata::GeographicBoundingBox::Private", align 8
  %15 = alloca %"struct.osgeo::proj::metadata::GeographicBoundingBox::Private", align 8
  store ptr %0, ptr %4, align 8
  store ptr %1, ptr %5, align 8
  %16 = load ptr, ptr %4, align 8
  %17 = getelementptr inbounds %"struct.osgeo::proj::metadata::GeographicBoundingBox::Private", ptr %16, i32 0, i32 0
  %18 = load double, ptr %17, align 8
  store double %18, ptr %6, align 8
  %19 = getelementptr inbounds %"struct.osgeo::proj::metadata::GeographicBoundingBox::Private", ptr %16, i32 0, i32 2
  %20 = load double, ptr %19, align 8
  store double %20, ptr %7, align 8
  %21 = getelementptr inbounds %"struct.osgeo::proj::metadata::GeographicBoundingBox::Private", ptr %16, i32 0, i32 3
  %22 = load double, ptr %21, align 8
  store double %22, ptr %8, align 8
  %23 = getelementptr inbounds %"struct.osgeo::proj::metadata::GeographicBoundingBox::Private", ptr %16, i32 0, i32 1
  %24 = load double, ptr %23, align 8
  store double %24, ptr %9, align 8
  %25 = load ptr, ptr %5, align 8
  %26 = getelementptr inbounds %"struct.osgeo::proj::metadata::GeographicBoundingBox::Private", ptr %25, i32 0, i32 0
  %27 = load double, ptr %26, align 8
  store double %27, ptr %10, align 8
  %28 = load ptr, ptr %5, align 8
  %29 = getelementptr inbounds %"struct.osgeo::proj::metadata::GeographicBoundingBox::Private", ptr %28, i32 0, i32 2
  %30 = load double, ptr %29, align 8
  store double %30, ptr %11, align 8
  %31 = load ptr, ptr %5, align 8
  %32 = getelementptr inbounds %"struct.osgeo::proj::metadata::GeographicBoundingBox::Private", ptr %31, i32 0, i32 3
  %33 = load double, ptr %32, align 8
  store double %33, ptr %12, align 8
  %34 = load ptr, ptr %5, align 8
  %35 = getelementptr inbounds %"struct.osgeo::proj::metadata::GeographicBoundingBox::Private", ptr %34, i32 0, i32 1
  %36 = load double, ptr %35, align 8
  store double %36, ptr %13, align 8
  %37 = load double, ptr %8, align 8
  %38 = load double, ptr %13, align 8
  %39 = fcmp olt double %37, %38
  br i1 %39, label %44, label %40

40:                                               ; preds = %2
  %41 = load double, ptr %9, align 8
  %42 = load double, ptr %12, align 8
  %43 = fcmp ogt double %41, %42
  br i1 %43, label %44, label %45

44:                                               ; preds = %40, %2
  store i1 false, ptr %3, align 1
  br label %110

45:                                               ; preds = %40
  %46 = load double, ptr %6, align 8
  %47 = fcmp oeq double %46, -1.800000e+02
  br i1 %47, label %48, label %56

48:                                               ; preds = %45
  %49 = load double, ptr %7, align 8
  %50 = fcmp oeq double %49, 1.800000e+02
  br i1 %50, label %51, label %56

51:                                               ; preds = %48
  %52 = load double, ptr %10, align 8
  %53 = load double, ptr %11, align 8
  %54 = fcmp ogt double %52, %53
  br i1 %54, label %55, label %56

55:                                               ; preds = %51
  store i1 true, ptr %3, align 1
  br label %110

56:                                               ; preds = %51, %48, %45
  %57 = load double, ptr %10, align 8
  %58 = fcmp oeq double %57, -1.800000e+02
  br i1 %58, label %59, label %67

59:                                               ; preds = %56
  %60 = load double, ptr %11, align 8
  %61 = fcmp oeq double %60, 1.800000e+02
  br i1 %61, label %62, label %67

62:                                               ; preds = %59
  %63 = load double, ptr %6, align 8
  %64 = load double, ptr %7, align 8
  %65 = fcmp ogt double %63, %64
  br i1 %65, label %66, label %67

66:                                               ; preds = %62
  store i1 true, ptr %3, align 1
  br label %110

67:                                               ; preds = %62, %59, %56
  %68 = load double, ptr %6, align 8
  %69 = load double, ptr %7, align 8
  %70 = fcmp ole double %68, %69
  br i1 %70, label %71, label %102

71:                                               ; preds = %67
  %72 = load double, ptr %10, align 8
  %73 = load double, ptr %11, align 8
  %74 = fcmp ole double %72, %73
  br i1 %74, label %75, label %83

75:                                               ; preds = %71
  %76 = call noundef nonnull align 8 dereferenceable(8) ptr @_ZSt3maxIdERKT_S2_S2_(ptr noundef nonnull align 8 dereferenceable(8) %6, ptr noundef nonnull align 8 dereferenceable(8) %10)
  %77 = load double, ptr %76, align 8
  %78 = call noundef nonnull align 8 dereferenceable(8) ptr @_ZSt3minIdERKT_S2_S2_(ptr noundef nonnull align 8 dereferenceable(8) %7, ptr noundef nonnull align 8 dereferenceable(8) %11)
  %79 = load double, ptr %78, align 8
  %80 = fcmp olt double %77, %79
  br i1 %80, label %81, label %82

81:                                               ; preds = %75
  store i1 true, ptr %3, align 1
  br label %110

82:                                               ; preds = %75
  store i1 false, ptr %3, align 1
  br label %110

83:                                               ; preds = %71
  %84 = load double, ptr %10, align 8
  %85 = fcmp ogt double %84, 1.800000e+02
  br i1 %85, label %89, label %86

86:                                               ; preds = %83
  %87 = load double, ptr %11, align 8
  %88 = fcmp olt double %87, -1.800000e+02
  br i1 %88, label %89, label %90

89:                                               ; preds = %86, %83
  store i1 false, ptr %3, align 1
  br label %110

90:                                               ; preds = %86
  %91 = load double, ptr %10, align 8
  %92 = load double, ptr %13, align 8
  %93 = load double, ptr %12, align 8
  call void @_ZN5osgeo4proj8metadata21GeographicBoundingBox7PrivateC2Edddd(ptr noundef nonnull align 8 dereferenceable(32) %14, double noundef %91, double noundef %92, double noundef 1.800000e+02, double noundef %93)
  %94 = call noundef zeroext i1 @_ZNK5osgeo4proj8metadata21GeographicBoundingBox7Private10intersectsERKS3_(ptr noundef nonnull align 8 dereferenceable(32) %16, ptr noundef nonnull align 8 dereferenceable(32) %14)
  br i1 %94, label %100, label %95

95:                                               ; preds = %90
  %96 = load double, ptr %13, align 8
  %97 = load double, ptr %11, align 8
  %98 = load double, ptr %12, align 8
  call void @_ZN5osgeo4proj8metadata21GeographicBoundingBox7PrivateC2Edddd(ptr noundef nonnull align 8 dereferenceable(32) %15, double noundef -1.800000e+02, double noundef %96, double noundef %97, double noundef %98)
  %99 = call noundef zeroext i1 @_ZNK5osgeo4proj8metadata21GeographicBoundingBox7Private10intersectsERKS3_(ptr noundef nonnull align 8 dereferenceable(32) %16, ptr noundef nonnull align 8 dereferenceable(32) %15)
  br label %100

100:                                              ; preds = %95, %90
  %101 = phi i1 [ true, %90 ], [ %99, %95 ]
  store i1 %101, ptr %3, align 1
  br label %110

102:                                              ; preds = %67
  %103 = load double, ptr %10, align 8
  %104 = load double, ptr %11, align 8
  %105 = fcmp ole double %103, %104
  br i1 %105, label %106, label %109

106:                                              ; preds = %102
  %107 = load ptr, ptr %5, align 8
  %108 = call noundef zeroext i1 @_ZNK5osgeo4proj8metadata21GeographicBoundingBox7Private10intersectsERKS3_(ptr noundef nonnull align 8 dereferenceable(32) %107, ptr noundef nonnull align 8 dereferenceable(32) %16)
  store i1 %108, ptr %3, align 1
  br label %110

109:                                              ; preds = %102
  store i1 true, ptr %3, align 1
  br label %110

110:                                              ; preds = %109, %106, %100, %89, %82, %81, %66, %55, %44
  %111 = load i1, ptr %3, align 1
  ret i1 %111
}