; Function Attrs: mustprogress nofree nosync nounwind willreturn memory(argmem: read) uwtable
define hidden noundef zeroext i1 @_ZNK5osgeo4proj8metadata21GeographicBoundingBox7Private10intersectsERKS3_(ptr nocapture noundef nonnull readonly align 8 dereferenceable(32) %0, ptr nocapture noundef nonnull readonly align 8 dereferenceable(32) %1) local_unnamed_addr #13 align 2 {
  %3 = alloca %"struct.osgeo::proj::metadata::GeographicBoundingBox::Private", align 8
  %4 = alloca %"struct.osgeo::proj::metadata::GeographicBoundingBox::Private", align 8
  %.pre = load double, ptr %0, align 8
  %.phi.trans.insert74 = getelementptr inbounds i8, ptr %0, i64 24
  %.pre75 = load double, ptr %.phi.trans.insert74, align 8
  %.phi.trans.insert76 = getelementptr inbounds i8, ptr %0, i64 8
  %5 = load <2 x double>, ptr %.phi.trans.insert76, align 8
  br label %tailrecurse

tailrecurse:                                      ; preds = %48, %2
  %6 = phi double [ %.pre75, %2 ], [ %11, %48 ]
  %7 = phi double [ %.pre, %2 ], [ %9, %48 ]
  %.tr = phi ptr [ %0, %2 ], [ %.tr48, %48 ]
  %.tr48 = phi ptr [ %1, %2 ], [ %.tr, %48 ]
  %8 = phi <2 x double> [ %5, %2 ], [ %13, %48 ]
  %9 = load double, ptr %.tr48, align 8
  %10 = getelementptr inbounds i8, ptr %.tr48, i64 24
  %11 = load double, ptr %10, align 8
  %12 = getelementptr inbounds i8, ptr %.tr48, i64 8
  %13 = load <2 x double>, ptr %12, align 8
  %14 = extractelement <2 x double> %13, i64 0
  %15 = fcmp uge double %6, %14
  %16 = extractelement <2 x double> %8, i64 0
  %17 = fcmp ule double %16, %11
  %or.cond24.not = select i1 %15, i1 %17, i1 false
  br i1 %or.cond24.not, label %18, label %.loopexit

18:                                               ; preds = %tailrecurse
  %19 = fcmp oeq double %7, -1.800000e+02
  %20 = extractelement <2 x double> %8, i64 1
  %21 = fcmp oeq double %20, 1.800000e+02
  %or.cond = select i1 %19, i1 %21, i1 false
  %22 = extractelement <2 x double> %13, i64 1
  %23 = fcmp ogt double %9, %22
  %or.cond26 = select i1 %or.cond, i1 %23, i1 false
  br i1 %or.cond26, label %.loopexit, label %24

24:                                               ; preds = %18
  %25 = fcmp oeq double %9, -1.800000e+02
  %26 = fcmp oeq double %22, 1.800000e+02
  %or.cond3 = select i1 %25, i1 %26, i1 false
  %27 = fcmp ogt double %7, %20
  %or.cond47 = select i1 %or.cond3, i1 %27, i1 false
  br i1 %or.cond47, label %.loopexit, label %28

28:                                               ; preds = %24
  %29 = fcmp ugt double %7, %20
  %30 = fcmp ugt double %9, %22
  br i1 %29, label %48, label %31

31:                                               ; preds = %28
  br i1 %30, label %36, label %32

32:                                               ; preds = %31
  %33 = fcmp olt double %7, %9
  %.sroa.speculated37 = select i1 %33, double %9, double %7
  %34 = fcmp olt double %22, %20
  %.sroa.speculated = select i1 %34, double %22, double %20
  %35 = fcmp olt double %.sroa.speculated37, %.sroa.speculated
  br label %.loopexit

36:                                               ; preds = %31
  %37 = fcmp ogt double %9, 1.800000e+02
  %38 = fcmp olt double %22, -1.800000e+02
  %or.cond5 = or i1 %37, %38
  br i1 %or.cond5, label %.loopexit, label %39

39:                                               ; preds = %36
  store double %9, ptr %3, align 8
  %40 = getelementptr inbounds i8, ptr %3, i64 8
  store double %14, ptr %40, align 8
  %41 = getelementptr inbounds i8, ptr %3, i64 16
  store double 1.800000e+02, ptr %41, align 8
  %42 = getelementptr inbounds i8, ptr %3, i64 24
  store double %11, ptr %42, align 8
  %43 = call noundef zeroext i1 @_ZNK5osgeo4proj8metadata21GeographicBoundingBox7Private10intersectsERKS3_(ptr noundef nonnull align 8 dereferenceable(32) %.tr, ptr noundef nonnull align 8 dereferenceable(32) %3)
  br i1 %43, label %.loopexit, label %44

44:                                               ; preds = %39
  store double -1.800000e+02, ptr %4, align 8
  %45 = getelementptr inbounds i8, ptr %4, i64 8
  store <2 x double> %13, ptr %45, align 8
  %46 = getelementptr inbounds i8, ptr %4, i64 24
  store double %11, ptr %46, align 8
  %47 = call noundef zeroext i1 @_ZNK5osgeo4proj8metadata21GeographicBoundingBox7Private10intersectsERKS3_(ptr noundef nonnull align 8 dereferenceable(32) %.tr, ptr noundef nonnull align 8 dereferenceable(32) %4)
  br label %.loopexit

48:                                               ; preds = %28
  br i1 %30, label %.loopexit, label %tailrecurse

.loopexit:                                        ; preds = %24, %48, %18, %tailrecurse, %39, %44, %36, %32
  %.0 = phi i1 [ %35, %32 ], [ false, %36 ], [ true, %39 ], [ %47, %44 ], [ %or.cond24.not, %tailrecurse ], [ %or.cond24.not, %18 ], [ %or.cond24.not, %48 ], [ %or.cond24.not, %24 ]
  ret i1 %.0
}